; ModuleID = '23/134.c'
source_filename = "23/134.c"
target datalayout = "e-m:e-p270:32:32-p271:32:32-p272:64:64-i64:64-f80:128-n8:16:32:64-S128"
target triple = "x86_64-pc-linux-gnu"

; Function Attrs: noinline nounwind uwtable
define dso_local i32 @main() #0 {
  %1 = alloca i32, align 4
  %2 = alloca [500 x i8], align 16
  %3 = alloca [500 x i8], align 16
  %4 = alloca i32, align 4
  %5 = alloca i32, align 4
  %6 = alloca i32, align 4
  %7 = alloca i32, align 4
  store i32 0, i32* %1, align 4
  store i32 0, i32* %6, align 4
  %8 = getelementptr inbounds [500 x i8], [500 x i8]* %2, i64 0, i64 0
  %9 = call i32 (i8*, ...) bitcast (i32 (...)* @gets to i32 (i8*, ...)*)(i8* %8)
  %10 = getelementptr inbounds [500 x i8], [500 x i8]* %2, i64 0, i64 0
  %11 = call i64 @strlen(i8* %10) #3
  %12 = trunc i64 %11 to i32
  store i32 %12, i32* %5, align 4
  store i32 0, i32* %4, align 4
  br label %13

13:                                               ; preds = %61, %0
  %14 = load i32, i32* %4, align 4
  %15 = load i32, i32* %5, align 4
  %16 = icmp slt i32 %14, %15
  br i1 %16, label %17, label %64

17:                                               ; preds = %13
  %18 = load i32, i32* %4, align 4
  %19 = sext i32 %18 to i64
  %20 = getelementptr inbounds [500 x i8], [500 x i8]* %2, i64 0, i64 %19
  %21 = load i8, i8* %20, align 1
  %22 = sext i8 %21 to i32
  %23 = icmp ne i32 %22, 32
  br i1 %23, label %24, label %27

24:                                               ; preds = %17
  %25 = load i32, i32* %6, align 4
  %26 = add nsw i32 %25, 1
  store i32 %26, i32* %6, align 4
  br label %60

27:                                               ; preds = %17
  %28 = load i32, i32* %4, align 4
  %29 = load i32, i32* %6, align 4
  %30 = sub nsw i32 %28, %29
  store i32 %30, i32* %7, align 4
  br label %31

31:                                               ; preds = %50, %27
  %32 = load i32, i32* %7, align 4
  %33 = load i32, i32* %4, align 4
  %34 = icmp slt i32 %32, %33
  br i1 %34, label %35, label %53

35:                                               ; preds = %31
  %36 = load i32, i32* %7, align 4
  %37 = sext i32 %36 to i64
  %38 = getelementptr inbounds [500 x i8], [500 x i8]* %2, i64 0, i64 %37
  %39 = load i8, i8* %38, align 1
  %40 = load i32, i32* %5, align 4
  %41 = load i32, i32* %7, align 4
  %42 = add nsw i32 %40, %41
  %43 = load i32, i32* %6, align 4
  %44 = add nsw i32 %42, %43
  %45 = load i32, i32* %4, align 4
  %46 = mul nsw i32 2, %45
  %47 = sub nsw i32 %44, %46
  %48 = sext i32 %47 to i64
  %49 = getelementptr inbounds [500 x i8], [500 x i8]* %3, i64 0, i64 %48
  store i8 %39, i8* %49, align 1
  br label %50

50:                                               ; preds = %35
  %51 = load i32, i32* %7, align 4
  %52 = add nsw i32 %51, 1
  store i32 %52, i32* %7, align 4
  br label %31

53:                                               ; preds = %31
  %54 = load i32, i32* %5, align 4
  %55 = load i32, i32* %4, align 4
  %56 = sub nsw i32 %54, %55
  %57 = sub nsw i32 %56, 1
  %58 = sext i32 %57 to i64
  %59 = getelementptr inbounds [500 x i8], [500 x i8]* %3, i64 0, i64 %58
  store i8 32, i8* %59, align 1
  store i32 0, i32* %6, align 4
  br label %60

60:                                               ; preds = %53, %24
  br label %61

61:                                               ; preds = %60
  %62 = load i32, i32* %4, align 4
  %63 = add nsw i32 %62, 1
  store i32 %63, i32* %4, align 4
  br label %13

64:                                               ; preds = %13
  %65 = load i32, i32* %4, align 4
  %66 = load i32, i32* %6, align 4
  %67 = sub nsw i32 %65, %66
  store i32 %67, i32* %7, align 4
  br label %68

68:                                               ; preds = %87, %64
  %69 = load i32, i32* %7, align 4
  %70 = load i32, i32* %4, align 4
  %71 = icmp slt i32 %69, %70
  br i1 %71, label %72, label %90

72:                                               ; preds = %68
  %73 = load i32, i32* %7, align 4
  %74 = sext i32 %73 to i64
  %75 = getelementptr inbounds [500 x i8], [500 x i8]* %2, i64 0, i64 %74
  %76 = load i8, i8* %75, align 1
  %77 = load i32, i32* %5, align 4
  %78 = load i32, i32* %7, align 4
  %79 = add nsw i32 %77, %78
  %80 = load i32, i32* %6, align 4
  %81 = add nsw i32 %79, %80
  %82 = load i32, i32* %4, align 4
  %83 = mul nsw i32 2, %82
  %84 = sub nsw i32 %81, %83
  %85 = sext i32 %84 to i64
  %86 = getelementptr inbounds [500 x i8], [500 x i8]* %3, i64 0, i64 %85
  store i8 %76, i8* %86, align 1
  br label %87

87:                                               ; preds = %72
  %88 = load i32, i32* %7, align 4
  %89 = add nsw i32 %88, 1
  store i32 %89, i32* %7, align 4
  br label %68

90:                                               ; preds = %68
  %91 = load i32, i32* %5, align 4
  %92 = sext i32 %91 to i64
  %93 = getelementptr inbounds [500 x i8], [500 x i8]* %3, i64 0, i64 %92
  store i8 0, i8* %93, align 1
  %94 = getelementptr inbounds [500 x i8], [500 x i8]* %3, i64 0, i64 0
  %95 = call i32 @puts(i8* %94)
  %96 = load i32, i32* %1, align 4
  ret i32 %96
}

declare dso_local i32 @gets(...) #1

; Function Attrs: nounwind readonly
declare dso_local i64 @strlen(i8*) #2

declare dso_local i32 @puts(i8*) #1


!llvm.module.flags = !{!0}
!llvm.ident = !{!1}

!0 = !{i32 1, !"wchar_size", i32 4}
!1 = !{!"clang version 10.0.0-4ubuntu1 "}
